target datalayout = "e-m:e-p270:32:32-p271:32:32-p272:64:64-i64:64-i128:128-f80:128-n8:16:32:64-S128"
target triple = "x86_64-pc-linux-gnu"

%struct.FStar_UInt128_uint128_s = type { i64, i64 }

; Function Attrs: inlinehint nounwind uwtable
define internal i64 @FStar_UInt128_constant_time_carry(i64 noundef %0, i64 noundef %1) #3 {
  %3 = alloca i64, align 8
  %4 = alloca i64, align 8
  store i64 %0, ptr %3, align 8, !tbaa !23
  store i64 %1, ptr %4, align 8, !tbaa !23
  %5 = load i64, ptr %3, align 8, !tbaa !23
  %6 = load i64, ptr %3, align 8, !tbaa !23
  %7 = load i64, ptr %4, align 8, !tbaa !23
  %8 = xor i64 %6, %7
  %9 = load i64, ptr %3, align 8, !tbaa !23
  %10 = load i64, ptr %4, align 8, !tbaa !23
  %11 = sub i64 %9, %10
  %12 = load i64, ptr %4, align 8, !tbaa !23
  %13 = xor i64 %11, %12
  %14 = or i64 %8, %13
  %15 = xor i64 %5, %14
  %16 = lshr i64 %15, 63
  ret i64 %16
}

; Function Attrs: inlinehint nounwind uwtable
define internal i64 @FStar_UInt128_carry(i64 noundef %0, i64 noundef %1) #3 {
  %3 = alloca i64, align 8
  %4 = alloca i64, align 8
  store i64 %0, ptr %3, align 8, !tbaa !23
  store i64 %1, ptr %4, align 8, !tbaa !23
  %5 = load i64, ptr %3, align 8, !tbaa !23
  %6 = load i64, ptr %4, align 8, !tbaa !23
  %7 = call i64 @FStar_UInt128_constant_time_carry(i64 noundef %5, i64 noundef %6)
  ret i64 %7
}

; Function Attrs: inlinehint nounwind uwtable
define internal { i64, i64 } @FStar_UInt128_add_mod(i64 %0, i64 %1, i64 %2, i64 %3) #3 {
  %5 = alloca %struct.FStar_UInt128_uint128_s, align 8
  %6 = alloca %struct.FStar_UInt128_uint128_s, align 8
  %7 = alloca %struct.FStar_UInt128_uint128_s, align 8
  %8 = getelementptr inbounds nuw { i64, i64 }, ptr %6, i32 0, i32 0
  store i64 %0, ptr %8, align 8
  %9 = getelementptr inbounds nuw { i64, i64 }, ptr %6, i32 0, i32 1
  store i64 %1, ptr %9, align 8
  %10 = getelementptr inbounds nuw { i64, i64 }, ptr %7, i32 0, i32 0
  store i64 %2, ptr %10, align 8
  %11 = getelementptr inbounds nuw { i64, i64 }, ptr %7, i32 0, i32 1
  store i64 %3, ptr %11, align 8
  %12 = getelementptr inbounds nuw %struct.FStar_UInt128_uint128_s, ptr %6, i32 0, i32 0
  %13 = load i64, ptr %12, align 8, !tbaa !28
  %14 = getelementptr inbounds nuw %struct.FStar_UInt128_uint128_s, ptr %7, i32 0, i32 0
  %15 = load i64, ptr %14, align 8, !tbaa !28
  %16 = add i64 %13, %15
  %17 = getelementptr inbounds nuw %struct.FStar_UInt128_uint128_s, ptr %5, i32 0, i32 0
  store i64 %16, ptr %17, align 8, !tbaa !28
  %18 = getelementptr inbounds nuw %struct.FStar_UInt128_uint128_s, ptr %6, i32 0, i32 1
  %19 = load i64, ptr %18, align 8, !tbaa !30
  %20 = getelementptr inbounds nuw %struct.FStar_UInt128_uint128_s, ptr %7, i32 0, i32 1
  %21 = load i64, ptr %20, align 8, !tbaa !30
  %22 = add i64 %19, %21
  %23 = getelementptr inbounds nuw %struct.FStar_UInt128_uint128_s, ptr %6, i32 0, i32 0
  %24 = load i64, ptr %23, align 8, !tbaa !28
  %25 = getelementptr inbounds nuw %struct.FStar_UInt128_uint128_s, ptr %7, i32 0, i32 0
  %26 = load i64, ptr %25, align 8, !tbaa !28
  %27 = add i64 %24, %26
  %28 = getelementptr inbounds nuw %struct.FStar_UInt128_uint128_s, ptr %7, i32 0, i32 0
  %29 = load i64, ptr %28, align 8, !tbaa !28
  %30 = call i64 @FStar_UInt128_carry(i64 noundef %27, i64 noundef %29)
  %31 = add i64 %22, %30
  %32 = getelementptr inbounds nuw %struct.FStar_UInt128_uint128_s, ptr %5, i32 0, i32 1
  store i64 %31, ptr %32, align 8, !tbaa !30
  %33 = load { i64, i64 }, ptr %5, align 8
  ret { i64, i64 } %33
}

; Function Attrs: inlinehint nounwind uwtable
define internal { i64, i64 } @FStar_UInt128_uint64_to_uint128(i64 noundef %0) #3 {
  %2 = alloca %struct.FStar_UInt128_uint128_s, align 8
  %3 = alloca i64, align 8
  store i64 %0, ptr %3, align 8, !tbaa !23
  %4 = load i64, ptr %3, align 8, !tbaa !23
  %5 = getelementptr inbounds nuw %struct.FStar_UInt128_uint128_s, ptr %2, i32 0, i32 0
  store i64 %4, ptr %5, align 8, !tbaa !28
  %6 = getelementptr inbounds nuw %struct.FStar_UInt128_uint128_s, ptr %2, i32 0, i32 1
  store i64 0, ptr %6, align 8, !tbaa !30
  %7 = load { i64, i64 }, ptr %2, align 8
  ret { i64, i64 } %7
}

; Function Attrs: nounwind uwtable
define hidden void @python_hashlib_Hacl_Hash_Blake2b_update_last(i32 noundef %0, ptr noundef %1, ptr noundef %2, i1 noundef zeroext %3, i64 %4, i64 %5, i32 noundef %6, ptr noundef %7) #0 {
  %9 = alloca %struct.FStar_UInt128_uint128_s, align 8
  %10 = alloca i32, align 4
  %11 = alloca ptr, align 8
  %12 = alloca ptr, align 8
  %13 = alloca i8, align 1
  %14 = alloca i32, align 4
  %15 = alloca ptr, align 8
  %16 = alloca [128 x i8], align 16
  %17 = alloca ptr, align 8
  %18 = alloca %struct.FStar_UInt128_uint128_s, align 8
  %19 = alloca %struct.FStar_UInt128_uint128_s, align 8
  %20 = getelementptr inbounds nuw { i64, i64 }, ptr %9, i32 0, i32 0
  store i64 %4, ptr %20, align 8
  %21 = getelementptr inbounds nuw { i64, i64 }, ptr %9, i32 0, i32 1
  store i64 %5, ptr %21, align 8
  store i32 %0, ptr %10, align 4, !tbaa !8
  store ptr %1, ptr %11, align 8, !tbaa !3
  store ptr %2, ptr %12, align 8, !tbaa !3
  %22 = zext i1 %3 to i8
  store i8 %22, ptr %13, align 1, !tbaa !31
  store i32 %6, ptr %14, align 4, !tbaa !8
  store ptr %7, ptr %15, align 8, !tbaa !25
  call void @llvm.lifetime.start.p0(i64 128, ptr %16) #9
  call void @llvm.memset.p0.i64(ptr align 16 %16, i8 0, i64 128, i1 false)
  call void @llvm.lifetime.start.p0(i64 8, ptr %17) #9
  %23 = load ptr, ptr %15, align 8, !tbaa !25
  %24 = load i32, ptr %10, align 4, !tbaa !8
  %25 = zext i32 %24 to i64
  %26 = getelementptr i8, ptr %23, i64 %25
  %27 = load i32, ptr %14, align 4, !tbaa !8
  %28 = zext i32 %27 to i64
  %29 = sub i64 0, %28
  %30 = getelementptr i8, ptr %26, i64 %29
  store ptr %30, ptr %17, align 8, !tbaa !25
  %31 = getelementptr inbounds [128 x i8], ptr %16, i64 0, i64 0
  %32 = load ptr, ptr %17, align 8, !tbaa !25
  %33 = load i32, ptr %14, align 4, !tbaa !8
  %34 = zext i32 %33 to i64
  %35 = mul i64 %34, 1
  call void @llvm.memcpy.p0.p0.i64(ptr align 16 %31, ptr align 1 %32, i64 %35, i1 false)
  call void @llvm.lifetime.start.p0(i64 16, ptr %18) #9
  %36 = load i32, ptr %10, align 4, !tbaa !8
  %37 = zext i32 %36 to i64
  %38 = call { i64, i64 } @FStar_UInt128_uint64_to_uint128(i64 noundef %37)
  %39 = getelementptr inbounds nuw { i64, i64 }, ptr %19, i32 0, i32 0
  %40 = extractvalue { i64, i64 } %38, 0
  store i64 %40, ptr %39, align 8
  %41 = getelementptr inbounds nuw { i64, i64 }, ptr %19, i32 0, i32 1
  %42 = extractvalue { i64, i64 } %38, 1
  store i64 %42, ptr %41, align 8
  %43 = getelementptr inbounds nuw { i64, i64 }, ptr %9, i32 0, i32 0
  %44 = load i64, ptr %43, align 8
  %45 = getelementptr inbounds nuw { i64, i64 }, ptr %9, i32 0, i32 1
  %46 = load i64, ptr %45, align 8
  %47 = getelementptr inbounds nuw { i64, i64 }, ptr %19, i32 0, i32 0
  %48 = load i64, ptr %47, align 8
  %49 = getelementptr inbounds nuw { i64, i64 }, ptr %19, i32 0, i32 1
  %50 = load i64, ptr %49, align 8
  %51 = call { i64, i64 } @FStar_UInt128_add_mod(i64 %44, i64 %46, i64 %48, i64 %50)
  %52 = getelementptr inbounds nuw { i64, i64 }, ptr %18, i32 0, i32 0
  %53 = extractvalue { i64, i64 } %51, 0
  store i64 %53, ptr %52, align 8
  %54 = getelementptr inbounds nuw { i64, i64 }, ptr %18, i32 0, i32 1
  %55 = extractvalue { i64, i64 } %51, 1
  store i64 %55, ptr %54, align 8
  %56 = load ptr, ptr %11, align 8, !tbaa !3
  %57 = load ptr, ptr %12, align 8, !tbaa !3
  %58 = load i8, ptr %13, align 1, !tbaa !31, !range !33, !noundef !34
  %59 = trunc i8 %58 to i1
  %60 = getelementptr inbounds [128 x i8], ptr %16, i64 0, i64 0
  %61 = getelementptr inbounds nuw { i64, i64 }, ptr %18, i32 0, i32 0
  %62 = load i64, ptr %61, align 8
  %63 = getelementptr inbounds nuw { i64, i64 }, ptr %18, i32 0, i32 1
  %64 = load i64, ptr %63, align 8
  call void @update_block(ptr noundef %56, ptr noundef %57, i1 noundef zeroext true, i1 noundef zeroext %59, i64 %62, i64 %64, ptr noundef %60)
  %65 = getelementptr inbounds [128 x i8], ptr %16, i64 0, i64 0
  call void @Lib_Memzero0_memzero0(ptr noundef %65, i64 noundef 128)
  call void @llvm.lifetime.end.p0(i64 16, ptr %18) #9
  call void @llvm.lifetime.end.p0(i64 8, ptr %17) #9
  call void @llvm.lifetime.end.p0(i64 128, ptr %16) #9
  ret void
}

; Function Attrs: nounwind uwtable
define hidden void @python_hashlib_Hacl_Hash_Blake2b_update_multi(i32 noundef %0, ptr noundef %1, ptr noundef %2, i64 %3, i64 %4, ptr noundef %5, i32 noundef %6) #0 {
  %8 = alloca %struct.FStar_UInt128_uint128_s, align 8
  %9 = alloca i32, align 4
  %10 = alloca ptr, align 8
  %11 = alloca ptr, align 8
  %12 = alloca ptr, align 8
  %13 = alloca i32, align 4
  %14 = alloca i32, align 4
  %15 = alloca %struct.FStar_UInt128_uint128_s, align 8
  %16 = alloca %struct.FStar_UInt128_uint128_s, align 8
  %17 = alloca ptr, align 8
  %18 = getelementptr inbounds nuw { i64, i64 }, ptr %8, i32 0, i32 0
  store i64 %3, ptr %18, align 8
  %19 = getelementptr inbounds nuw { i64, i64 }, ptr %8, i32 0, i32 1
  store i64 %4, ptr %19, align 8
  store i32 %0, ptr %9, align 4, !tbaa !8
  store ptr %1, ptr %10, align 8, !tbaa !3
  store ptr %2, ptr %11, align 8, !tbaa !3
  store ptr %5, ptr %12, align 8, !tbaa !25
  store i32 %6, ptr %13, align 4, !tbaa !8
  call void @llvm.lifetime.start.p0(i64 4, ptr %14) #9
  store i32 0, ptr %14, align 4, !tbaa !8
  br label %20

20:                                               ; preds = %60, %7
  %21 = load i32, ptr %14, align 4, !tbaa !8
  %22 = load i32, ptr %13, align 4, !tbaa !8
  %23 = icmp ult i32 %21, %22
  br i1 %23, label %25, label %24

24:                                               ; preds = %20
  call void @llvm.lifetime.end.p0(i64 4, ptr %14) #9
  br label %63

25:                                               ; preds = %20
  call void @llvm.lifetime.start.p0(i64 16, ptr %15) #9
  %26 = load i32, ptr %14, align 4, !tbaa !8
  %27 = add i32 %26, 1
  %28 = mul i32 %27, 128
  %29 = zext i32 %28 to i64
  %30 = call { i64, i64 } @FStar_UInt128_uint64_to_uint128(i64 noundef %29)
  %31 = getelementptr inbounds nuw { i64, i64 }, ptr %16, i32 0, i32 0
  %32 = extractvalue { i64, i64 } %30, 0
  store i64 %32, ptr %31, align 8
  %33 = getelementptr inbounds nuw { i64, i64 }, ptr %16, i32 0, i32 1
  %34 = extractvalue { i64, i64 } %30, 1
  store i64 %34, ptr %33, align 8
  %35 = getelementptr inbounds nuw { i64, i64 }, ptr %8, i32 0, i32 0
  %36 = load i64, ptr %35, align 8
  %37 = getelementptr inbounds nuw { i64, i64 }, ptr %8, i32 0, i32 1
  %38 = load i64, ptr %37, align 8
  %39 = getelementptr inbounds nuw { i64, i64 }, ptr %16, i32 0, i32 0
  %40 = load i64, ptr %39, align 8
  %41 = getelementptr inbounds nuw { i64, i64 }, ptr %16, i32 0, i32 1
  %42 = load i64, ptr %41, align 8
  %43 = call { i64, i64 } @FStar_UInt128_add_mod(i64 %36, i64 %38, i64 %40, i64 %42)
  %44 = getelementptr inbounds nuw { i64, i64 }, ptr %15, i32 0, i32 0
  %45 = extractvalue { i64, i64 } %43, 0
  store i64 %45, ptr %44, align 8
  %46 = getelementptr inbounds nuw { i64, i64 }, ptr %15, i32 0, i32 1
  %47 = extractvalue { i64, i64 } %43, 1
  store i64 %47, ptr %46, align 8
  call void @llvm.lifetime.start.p0(i64 8, ptr %17) #9
  %48 = load ptr, ptr %12, align 8, !tbaa !25
  %49 = load i32, ptr %14, align 4, !tbaa !8
  %50 = mul i32 %49, 128
  %51 = zext i32 %50 to i64
  %52 = getelementptr i8, ptr %48, i64 %51
  store ptr %52, ptr %17, align 8, !tbaa !25
  %53 = load ptr, ptr %10, align 8, !tbaa !3
  %54 = load ptr, ptr %11, align 8, !tbaa !3
  %55 = load ptr, ptr %17, align 8, !tbaa !25
  %56 = getelementptr inbounds nuw { i64, i64 }, ptr %15, i32 0, i32 0
  %57 = load i64, ptr %56, align 8
  %58 = getelementptr inbounds nuw { i64, i64 }, ptr %15, i32 0, i32 1
  %59 = load i64, ptr %58, align 8
  call void @update_block(ptr noundef %53, ptr noundef %54, i1 noundef zeroext false, i1 noundef zeroext false, i64 %57, i64 %59, ptr noundef %55)
  call void @llvm.lifetime.end.p0(i64 8, ptr %17) #9
  call void @llvm.lifetime.end.p0(i64 16, ptr %15) #9
  br label %60

60:                                               ; preds = %25
  %61 = load i32, ptr %14, align 4, !tbaa !8
  %62 = add i32 %61, 1
  store i32 %62, ptr %14, align 4, !tbaa !8
  br label %20, !llvm.loop !26

63:                                               ; preds = %24
  ret void
}

; Function Attrs: nounwind uwtable
define internal void @update_blocks(i32 noundef %0, ptr noundef %1, ptr noundef %2, i64 %3, i64 %4, ptr noundef %5) #0 {
  %7 = alloca %struct.FStar_UInt128_uint128_s, align 8
  %8 = alloca i32, align 4
  %9 = alloca ptr, align 8
  %10 = alloca ptr, align 8
  %11 = alloca ptr, align 8
  %12 = alloca i32, align 4
  %13 = alloca i32, align 4
  %14 = alloca i32, align 4
  %15 = alloca i32, align 4
  %16 = getelementptr inbounds nuw { i64, i64 }, ptr %7, i32 0, i32 0
  store i64 %3, ptr %16, align 8
  %17 = getelementptr inbounds nuw { i64, i64 }, ptr %7, i32 0, i32 1
  store i64 %4, ptr %17, align 8
  store i32 %0, ptr %8, align 4, !tbaa !8
  store ptr %1, ptr %9, align 8, !tbaa !3
  store ptr %2, ptr %10, align 8, !tbaa !3
  store ptr %5, ptr %11, align 8, !tbaa !25
  call void @llvm.lifetime.start.p0(i64 4, ptr %12) #9
  %18 = load i32, ptr %8, align 4, !tbaa !8
  %19 = udiv i32 %18, 128
  store i32 %19, ptr %12, align 4, !tbaa !8
  call void @llvm.lifetime.start.p0(i64 4, ptr %13) #9
  %20 = load i32, ptr %8, align 4, !tbaa !8
  %21 = urem i32 %20, 128
  store i32 %21, ptr %13, align 4, !tbaa !8
  call void @llvm.lifetime.start.p0(i64 4, ptr %14) #9
  %22 = load i32, ptr %13, align 4, !tbaa !8
  %23 = icmp eq i32 %22, 0
  br i1 %23, label %24, label %30

24:                                               ; preds = %6
  %25 = load i32, ptr %12, align 4, !tbaa !8
  %26 = icmp ugt i32 %25, 0
  br i1 %26, label %27, label %30

27:                                               ; preds = %24
  %28 = load i32, ptr %12, align 4, !tbaa !8
  %29 = sub i32 %28, 1
  store i32 %29, ptr %14, align 4, !tbaa !8
  br label %32

30:                                               ; preds = %24, %6
  %31 = load i32, ptr %12, align 4, !tbaa !8
  store i32 %31, ptr %14, align 4, !tbaa !8
  br label %32

32:                                               ; preds = %30, %27
  call void @llvm.lifetime.start.p0(i64 4, ptr %15) #9
  %33 = load i32, ptr %13, align 4, !tbaa !8
  %34 = icmp eq i32 %33, 0
  br i1 %34, label %35, label %39

35:                                               ; preds = %32
  %36 = load i32, ptr %12, align 4, !tbaa !8
  %37 = icmp ugt i32 %36, 0
  br i1 %37, label %38, label %39

38:                                               ; preds = %35
  store i32 128, ptr %15, align 4, !tbaa !8
  br label %41

39:                                               ; preds = %35, %32
  %40 = load i32, ptr %13, align 4, !tbaa !8
  store i32 %40, ptr %15, align 4, !tbaa !8
  br label %41

41:                                               ; preds = %39, %38
  %42 = load i32, ptr %8, align 4, !tbaa !8
  %43 = load ptr, ptr %9, align 8, !tbaa !3
  %44 = load ptr, ptr %10, align 8, !tbaa !3
  %45 = load ptr, ptr %11, align 8, !tbaa !25
  %46 = load i32, ptr %14, align 4, !tbaa !8
  %47 = getelementptr inbounds nuw { i64, i64 }, ptr %7, i32 0, i32 0
  %48 = load i64, ptr %47, align 8
  %49 = getelementptr inbounds nuw { i64, i64 }, ptr %7, i32 0, i32 1
  %50 = load i64, ptr %49, align 8
  call void @python_hashlib_Hacl_Hash_Blake2b_update_multi(i32 noundef %42, ptr noundef %43, ptr noundef %44, i64 %48, i64 %50, ptr noundef %45, i32 noundef %46)
  %51 = load i32, ptr %8, align 4, !tbaa !8
  %52 = load ptr, ptr %9, align 8, !tbaa !3
  %53 = load ptr, ptr %10, align 8, !tbaa !3
  %54 = load i32, ptr %15, align 4, !tbaa !8
  %55 = load ptr, ptr %11, align 8, !tbaa !25
  %56 = getelementptr inbounds nuw { i64, i64 }, ptr %7, i32 0, i32 0
  %57 = load i64, ptr %56, align 8
  %58 = getelementptr inbounds nuw { i64, i64 }, ptr %7, i32 0, i32 1
  %59 = load i64, ptr %58, align 8
  call void @python_hashlib_Hacl_Hash_Blake2b_update_last(i32 noundef %51, ptr noundef %52, ptr noundef %53, i1 noundef zeroext false, i64 %57, i64 %59, i32 noundef %54, ptr noundef %55)
  call void @llvm.lifetime.end.p0(i64 4, ptr %15) #9
  call void @llvm.lifetime.end.p0(i64 4, ptr %14) #9
  call void @llvm.lifetime.end.p0(i64 4, ptr %13) #9
  call void @llvm.lifetime.end.p0(i64 4, ptr %12) #9
  ret void
}