; Function Attrs: nounwind uwtable
define internal fastcc void @update_blocks(i32 noundef %0, ptr noundef nonnull captures(none) initializes((0, 128)) %1, ptr noundef nonnull captures(none) %2, i64 %3, ptr noundef readonly captures(none) %4) unnamed_addr #5 {
  %6 = alloca [128 x i8], align 16
  %7 = lshr i32 %0, 7
  %8 = and i32 %0, 127
  %9 = icmp eq i32 %8, 0
  %10 = icmp ugt i32 %0, 127
  %or.cond = and i1 %10, %9
  %11 = sext i1 %or.cond to i32
  %.023 = add nsw i32 %7, %11
  %.not.i = icmp eq i32 %.023, 0
  br i1 %.not.i, label %python_hashlib_Hacl_Hash_Blake2b_update_multi.exit, label %.lr.ph.preheader.i

.lr.ph.preheader.i:                               ; preds = %5
  %wide.trip.count.i = zext i32 %.023 to i64
  br label %.lr.ph.i

.lr.ph.i:                                         ; preds = %.lr.ph.i, %.lr.ph.preheader.i
  %indvars.iv.i = phi i64 [ 0, %.lr.ph.preheader.i ], [ %indvars.iv.next.i, %.lr.ph.i ]
  %indvars.iv.next.i = add nuw nsw i64 %indvars.iv.i, 1
  %12 = shl i64 %indvars.iv.next.i, 7
  %13 = and i64 %12, 4294967168
  %14 = add i64 %13, %3
  %15 = xor i64 %14, -1
  %16 = and i64 %3, %15
  %17 = lshr i64 %16, 63
  %18 = shl i64 %indvars.iv.i, 7
  %19 = and i64 %18, 4294967168
  %20 = getelementptr i8, ptr %4, i64 %19
  tail call fastcc void @update_block(ptr noundef nonnull %1, ptr noundef nonnull %2, i1 noundef zeroext false, i1 noundef zeroext false, i64 %14, i64 %17, ptr noundef readonly %20)
  %exitcond.not.i = icmp eq i64 %indvars.iv.next.i, %wide.trip.count.i
  br i1 %exitcond.not.i, label %python_hashlib_Hacl_Hash_Blake2b_update_multi.exit, label %.lr.ph.i, !llvm.loop !7

python_hashlib_Hacl_Hash_Blake2b_update_multi.exit: ; preds = %.lr.ph.i, %5
  call void @llvm.lifetime.start.p0(i64 128, ptr nonnull %6) #19
  call void @llvm.memset.p0.i64(ptr noundef nonnull align 16 dereferenceable(128) %6, i8 0, i64 128, i1 false)
  %21 = zext i32 %0 to i64
  %22 = getelementptr i8, ptr %4, i64 %21
  %23 = zext nneg i32 %8 to i64
  %24 = select i1 %or.cond, i64 128, i64 %23
  %25 = sub nsw i64 0, %24
  %26 = getelementptr i8, ptr %22, i64 %25
  call void @llvm.memcpy.p0.p0.i64(ptr nonnull align 16 %6, ptr readonly align 1 %26, i64 %24, i1 false)
  %27 = add i64 %3, %21
  %28 = xor i64 %27, -1
  %29 = and i64 %3, %28
  %30 = lshr i64 %29, 63
  call fastcc void @update_block(ptr noundef nonnull %1, ptr noundef nonnull %2, i1 noundef zeroext true, i1 noundef zeroext false, i64 %27, i64 %30, ptr noundef nonnull %6)
  call void @Lib_Memzero0_memzero0(ptr noundef nonnull %6, i64 noundef 128) #19
  call void @llvm.lifetime.end.p0(i64 128, ptr nonnull %6) #19
  ret void
}